target datalayout = "e-m:e-p270:32:32-p271:32:32-p272:64:64-i64:64-i128:128-f80:128-n8:16:32:64-S128"
target triple = "x86_64-pc-linux-gnu"

%struct.FuncState = type { ptr, ptr, ptr, ptr, ptr, i32, i32, i32, i32, i32, i32, i32, i32, ptr, i32, i32, i8, i8, i8, i8, [200 x i16], [60 x i16], [60 x i16] }

; Function Attrs: noreturn nounwind uwtable
define internal void @err_limit(ptr noundef %0, i32 noundef %1, ptr noundef %2) #7 {
  %4 = alloca ptr, align 8
  %5 = alloca i32, align 4
  %6 = alloca ptr, align 8
  store ptr %0, ptr %4, align 8, !tbaa !62
  store i32 %1, ptr %5, align 4, !tbaa !79
  store ptr %2, ptr %6, align 8, !tbaa !9
  %7 = load ptr, ptr %4, align 8, !tbaa !62
  %8 = getelementptr inbounds nuw %struct.FuncState, ptr %7, i32 0, i32 12
  %9 = load i32, ptr %8, align 4, !tbaa !53
  %10 = icmp eq i32 %9, 0
  br i1 %10, label %11, label %17

11:                                               ; preds = %3
  %12 = load ptr, ptr %4, align 8, !tbaa !62
  %13 = getelementptr inbounds nuw %struct.FuncState, ptr %12, i32 0, i32 1
  %14 = load ptr, ptr %13, align 8, !tbaa !64
  %15 = load i32, ptr %5, align 4, !tbaa !79
  %16 = load ptr, ptr %6, align 8, !tbaa !9
  call void (ptr, i32, i32, ...) @lj_lex_error(ptr noundef %14, i32 noundef 0, i32 noundef 2500, i32 noundef %15, ptr noundef %16) #13
  unreachable

17:                                               ; preds = %3
  %18 = load ptr, ptr %4, align 8, !tbaa !62
  %19 = getelementptr inbounds nuw %struct.FuncState, ptr %18, i32 0, i32 1
  %20 = load ptr, ptr %19, align 8, !tbaa !64
  %21 = load ptr, ptr %4, align 8, !tbaa !62
  %22 = getelementptr inbounds nuw %struct.FuncState, ptr %21, i32 0, i32 12
  %23 = load i32, ptr %22, align 4, !tbaa !53
  %24 = load i32, ptr %5, align 4, !tbaa !79
  %25 = load ptr, ptr %6, align 8, !tbaa !9
  call void (ptr, i32, i32, ...) @lj_lex_error(ptr noundef %20, i32 noundef 0, i32 noundef 2534, i32 noundef %23, i32 noundef %24, ptr noundef %25) #13
  unreachable
}