; Function Attrs: noreturn nounwind uwtable
define internal fastcc void @err_limit(ptr noundef readonly captures(none) %0, i32 noundef range(i32 60, 67108865) %1, ptr noundef %2) unnamed_addr #5 {
  %4 = getelementptr inbounds nuw i8, ptr %0, i64 68
  %5 = load i32, ptr %4, align 4, !tbaa !105
  %6 = icmp eq i32 %5, 0
  %7 = getelementptr inbounds nuw i8, ptr %0, i64 8
  %8 = load ptr, ptr %7, align 8, !tbaa !47
  br i1 %6, label %9, label %10

9:                                                ; preds = %3
  tail call void (ptr, i32, i32, ...) @lj_lex_error(ptr noundef %8, i32 noundef 0, i32 noundef 2500, i32 noundef %1, ptr noundef %2) #14
  unreachable

10:                                               ; preds = %3
  tail call void (ptr, i32, i32, ...) @lj_lex_error(ptr noundef %8, i32 noundef 0, i32 noundef 2534, i32 noundef %5, i32 noundef %1, ptr noundef %2) #14
  unreachable
}